target datalayout = "e-m:e-p270:32:32-p271:32:32-p272:64:64-i64:64-i128:128-f80:128-n8:16:32:64-S128"
target triple = "x86_64-pc-linux-gnu"

%struct.Curl_cftype = type { ptr, i32, i32, ptr, ptr, ptr, ptr, ptr, ptr, ptr, ptr, ptr, ptr, ptr, ptr }
%struct.Curl_easy = type { i32, i64, ptr, ptr, ptr, %struct.Curl_llist_element, %struct.Curl_llist_element, i32, i32, %struct.Curl_message, %struct.easy_pollset, %struct.Names, ptr, ptr, ptr, %struct.SingleRequest, %struct.UserDefined, ptr, ptr, %struct.Progress, %struct.UrlState, ptr, %struct.PureInfo, %struct.curl_tlssessioninfo }
%struct.Curl_llist_element = type { ptr, ptr, ptr }
%struct.Curl_message = type { %struct.Curl_llist_element, %struct.CURLMsg }
%struct.CURLMsg = type { i32, ptr, %union.anon }
%union.anon = type { ptr }
%struct.easy_pollset = type { [5 x i32], i32, [5 x i8] }
%struct.Names = type { ptr, i32 }
%struct.SingleRequest = type <{ i64, i64, i64, i64, i64, %struct.curltime, i32, i32, i32, i32, i64, i32, i32, %struct.curltime, i32, i32, ptr, i64, i64, ptr, ptr, i64, ptr, %union.anon.0, ptr, [2 x i8], i8, i16, [3 x i8] }>
%struct.curltime = type { i64, i32 }
%union.anon.0 = type { ptr }
%struct.UserDefined = type <{ ptr, ptr, ptr, ptr, ptr, ptr, i16, [6 x i8], i64, i64, i64, ptr, ptr, i64, i16, i16, [4 x i8], ptr, ptr, ptr, ptr, ptr, ptr, ptr, ptr, ptr, ptr, ptr, ptr, ptr, ptr, ptr, ptr, ptr, ptr, ptr, ptr, ptr, ptr, ptr, i32, i32, i32, i32, i64, i64, i64, i64, i64, i64, i64, i64, ptr, ptr, %struct.curl_mimepart, ptr, ptr, i64, i8, i8, i8, [5 x i8], %struct.ssl_config_data, %struct.ssl_config_data, ptr, i16, i8, i8, [4 x i8], %struct.ssl_general_config, i32, i32, i32, [4 x i8], ptr, ptr, i8, [7 x i8], i64, i8, i8, i8, i8, i32, ptr, ptr, ptr, i8, i8, [2 x i8], i32, [80 x ptr], [8 x ptr], i32, i32, i32, [4 x i8], ptr, ptr, ptr, ptr, ptr, i8, [3 x i8], i32, i32, [4 x i8], i64, %struct.Curl_data_priority, ptr, ptr, i64, ptr, ptr, ptr, ptr, ptr, i8, [3 x i8], i32, i8, i8, i56, [6 x i8] }>
%struct.curl_mimepart = type { ptr, ptr, i32, i32, ptr, ptr, ptr, ptr, ptr, ptr, ptr, ptr, ptr, ptr, ptr, i64, %struct.mime_state, ptr, %struct.mime_encoder_state, i64 }
%struct.mime_state = type { i32, ptr, i64 }
%struct.mime_encoder_state = type { i64, i64, i64, [256 x i8] }
%struct.ssl_config_data = type { %struct.ssl_primary_config, i64, ptr, ptr, ptr, ptr, ptr, ptr, ptr, i8 }
%struct.ssl_primary_config = type { ptr, ptr, ptr, ptr, ptr, ptr, ptr, ptr, ptr, ptr, ptr, ptr, i8, i32, i8, i8 }
%struct.ssl_general_config = type { i64, i32 }
%struct.Curl_data_priority = type { ptr, ptr, i32, i8 }
%struct.Progress = type { i64, i64, i64, i64, i64, i64, i32, i32, i64, i64, i64, i64, i64, i64, i64, i64, i64, i64, %struct.curltime, %struct.curltime, %struct.curltime, %struct.curltime, %struct.curltime, i64, %struct.curltime, i64, [6 x i64], [6 x %struct.curltime], i32, i8 }
%struct.UrlState = type { ptr, %struct.curltime, i64, i64, %struct.dynbuf, ptr, ptr, ptr, i64, ptr, i32, i32, i32, ptr, i64, [3 x %struct.tempbuf], i32, i32, ptr, i64, i32, ptr, %struct.digestdata, %struct.digestdata, %struct.auth, %struct.auth, %struct.Curl_async, ptr, %struct.curltime, %struct.Curl_tree, %struct.Curl_llist, [15 x %struct.time_node], ptr, i8, i64, ptr, i64, i64, %struct.Curl_data_priority, ptr, ptr, ptr, %struct.urlpieces, ptr, ptr, ptr, ptr, ptr, i64, %struct.dynbuf, %struct.Curl_llist, [2 x %struct.curl_header], ptr, i32, ptr, %struct.dynamically_allocated_data, i8, i8, i8, i8, i24 }
%struct.tempbuf = type { %struct.dynbuf, i32, i8 }
%struct.digestdata = type { ptr, ptr, ptr, ptr, ptr, ptr, i32, i8, i8 }
%struct.auth = type { i64, i64, i64, i8 }
%struct.Curl_async = type { ptr, ptr, ptr, ptr, i32, i32, i8 }
%struct.Curl_tree = type { ptr, ptr, ptr, ptr, %struct.curltime, ptr }
%struct.time_node = type { %struct.Curl_llist_element, %struct.curltime, i32 }
%struct.urlpieces = type { ptr, ptr, ptr, ptr, ptr, ptr, ptr, ptr }
%struct.dynbuf = type { ptr, i64, i64, i64 }
%struct.Curl_llist = type { ptr, ptr, ptr, i64 }
%struct.curl_header = type { ptr, ptr, i64, i64, i32, ptr }
%struct.dynamically_allocated_data = type { ptr, ptr, ptr, ptr, ptr, ptr, ptr, ptr, ptr, ptr, ptr, ptr, ptr, ptr }
%struct.PureInfo = type { i32, i32, i32, i64, i64, i64, i64, i64, ptr, ptr, i64, i32, [46 x i8], i32, i32, [46 x i8], i32, ptr, i32, %struct.curl_certinfo, i32, i8 }
%struct.curl_certinfo = type { i32, ptr }
%struct.curl_tlssessioninfo = type { i32, ptr }
%struct.Curl_cfilter = type { ptr, ptr, ptr, ptr, i32, i8 }
%struct.ssl_connect_data = type { i32, i32, %struct.ssl_peer, ptr, ptr, %struct.cf_call_data, %struct.curltime, i32, i8 }
%struct.ssl_peer = type { ptr, ptr, ptr, i8 }
%struct.cf_call_data = type { ptr }

@.str.21 = private unnamed_addr constant [13 x i8] c"cf_connect()\00", align 1
@.str.22 = private unnamed_addr constant [28 x i8] c"cf_connect() -> %d, done=%d\00", align 1

; Function Attrs: nounwind uwtable
define internal i32 @ssl_cf_connect(ptr noundef %0, ptr noundef %1, i1 noundef zeroext %2, ptr noundef %3) #0 {
  %5 = alloca i32, align 4
  %6 = alloca ptr, align 8
  %7 = alloca ptr, align 8
  %8 = alloca i8, align 1
  %9 = alloca ptr, align 8
  %10 = alloca ptr, align 8
  %11 = alloca %struct.cf_call_data, align 8
  %12 = alloca i32, align 4
  %13 = alloca %struct.curltime, align 8
  store ptr %0, ptr %6, align 8
  store ptr %1, ptr %7, align 8
  %14 = zext i1 %2 to i8
  store i8 %14, ptr %8, align 1
  store ptr %3, ptr %9, align 8
  %15 = load ptr, ptr %6, align 8
  %16 = getelementptr inbounds %struct.Curl_cfilter, ptr %15, i32 0, i32 2
  %17 = load ptr, ptr %16, align 8
  store ptr %17, ptr %10, align 8
  %18 = load ptr, ptr %6, align 8
  %19 = getelementptr inbounds %struct.Curl_cfilter, ptr %18, i32 0, i32 5
  %20 = load i8, ptr %19, align 4
  %21 = and i8 %20, 1
  %22 = zext i8 %21 to i32
  %23 = icmp ne i32 %22, 0
  br i1 %23, label %24, label %26

24:                                               ; preds = %4
  %25 = load ptr, ptr %9, align 8
  store i8 1, ptr %25, align 1
  store i32 0, ptr %5, align 4
  br label %184

26:                                               ; preds = %4
  br label %27

27:                                               ; preds = %26
  %28 = load ptr, ptr %6, align 8
  %29 = getelementptr inbounds %struct.Curl_cfilter, ptr %28, i32 0, i32 2
  %30 = load ptr, ptr %29, align 8
  %31 = getelementptr inbounds %struct.ssl_connect_data, ptr %30, i32 0, i32 5
  call void @llvm.memcpy.p0.p0.i64(ptr align 8 %11, ptr align 8 %31, i64 8, i1 false)
  %32 = load ptr, ptr %7, align 8
  %33 = load ptr, ptr %6, align 8
  %34 = getelementptr inbounds %struct.Curl_cfilter, ptr %33, i32 0, i32 2
  %35 = load ptr, ptr %34, align 8
  %36 = getelementptr inbounds %struct.ssl_connect_data, ptr %35, i32 0, i32 5
  %37 = getelementptr inbounds %struct.cf_call_data, ptr %36, i32 0, i32 0
  store ptr %32, ptr %37, align 8
  br label %38

38:                                               ; preds = %27
  br label %39

39:                                               ; preds = %38
  %40 = load ptr, ptr %7, align 8
  %41 = icmp ne ptr %40, null
  br i1 %41, label %42, label %64

42:                                               ; preds = %39
  %43 = load ptr, ptr %7, align 8
  %44 = getelementptr inbounds %struct.Curl_easy, ptr %43, i32 0, i32 16
  %45 = getelementptr inbounds %struct.UserDefined, ptr %44, i32 0, i32 122
  %46 = load i64, ptr %45, align 2
  %47 = lshr i64 %46, 28
  %48 = and i64 %47, 1
  %49 = trunc i64 %48 to i32
  %50 = icmp ne i32 %49, 0
  br i1 %50, label %51, label %64

51:                                               ; preds = %42
  %52 = load ptr, ptr %6, align 8
  %53 = icmp ne ptr %52, null
  br i1 %53, label %54, label %64

54:                                               ; preds = %51
  %55 = load ptr, ptr %6, align 8
  %56 = getelementptr inbounds %struct.Curl_cfilter, ptr %55, i32 0, i32 0
  %57 = load ptr, ptr %56, align 8
  %58 = getelementptr inbounds %struct.Curl_cftype, ptr %57, i32 0, i32 2
  %59 = load i32, ptr %58, align 4
  %60 = icmp sge i32 %59, 1
  br i1 %60, label %61, label %64

61:                                               ; preds = %54
  %62 = load ptr, ptr %7, align 8
  %63 = load ptr, ptr %6, align 8
  call void (ptr, ptr, ptr, ...) @Curl_trc_cf_infof(ptr noundef %62, ptr noundef %63, ptr noundef @.str.21)
  br label %64

64:                                               ; preds = %61, %54, %51, %42, %39
  br label %65

65:                                               ; preds = %64
  br label %66

66:                                               ; preds = %65
  br label %67

67:                                               ; preds = %66
  br label %68

68:                                               ; preds = %67
  br label %69

69:                                               ; preds = %68
  br label %70

70:                                               ; preds = %69
  br label %71

71:                                               ; preds = %70
  br label %72

72:                                               ; preds = %71
  br label %73

73:                                               ; preds = %72
  %74 = load ptr, ptr %6, align 8
  %75 = getelementptr inbounds %struct.Curl_cfilter, ptr %74, i32 0, i32 1
  %76 = load ptr, ptr %75, align 8
  %77 = getelementptr inbounds %struct.Curl_cfilter, ptr %76, i32 0, i32 0
  %78 = load ptr, ptr %77, align 8
  %79 = getelementptr inbounds %struct.Curl_cftype, ptr %78, i32 0, i32 4
  %80 = load ptr, ptr %79, align 8
  %81 = load ptr, ptr %6, align 8
  %82 = getelementptr inbounds %struct.Curl_cfilter, ptr %81, i32 0, i32 1
  %83 = load ptr, ptr %82, align 8
  %84 = load ptr, ptr %7, align 8
  %85 = load i8, ptr %8, align 1
  %86 = trunc i8 %85 to i1
  %87 = load ptr, ptr %9, align 8
  %88 = call i32 %80(ptr noundef %83, ptr noundef %84, i1 noundef zeroext %86, ptr noundef %87)
  store i32 %88, ptr %12, align 4
  %89 = load i32, ptr %12, align 4
  %90 = icmp ne i32 %89, 0
  br i1 %90, label %95, label %91

91:                                               ; preds = %73
  %92 = load ptr, ptr %9, align 8
  %93 = load i8, ptr %92, align 1
  %94 = trunc i8 %93 to i1
  br i1 %94, label %96, label %95

95:                                               ; preds = %91, %73
  br label %144

96:                                               ; preds = %91
  %97 = load ptr, ptr %9, align 8
  store i8 0, ptr %97, align 1
  %98 = load ptr, ptr %10, align 8
  %99 = getelementptr inbounds %struct.ssl_connect_data, ptr %98, i32 0, i32 2
  %100 = load ptr, ptr %6, align 8
  %101 = call i32 @Curl_ssl_peer_init(ptr noundef %99, ptr noundef %100)
  store i32 %101, ptr %12, align 4
  %102 = load i32, ptr %12, align 4
  %103 = icmp ne i32 %102, 0
  br i1 %103, label %104, label %105

104:                                              ; preds = %96
  br label %144

105:                                              ; preds = %96
  %106 = load i8, ptr %8, align 1
  %107 = trunc i8 %106 to i1
  br i1 %107, label %108, label %116

108:                                              ; preds = %105
  %109 = load ptr, ptr %6, align 8
  %110 = load ptr, ptr %7, align 8
  %111 = call i32 @ssl_connect(ptr noundef %109, ptr noundef %110)
  store i32 %111, ptr %12, align 4
  %112 = load i32, ptr %12, align 4
  %113 = icmp eq i32 %112, 0
  %114 = load ptr, ptr %9, align 8
  %115 = zext i1 %113 to i8
  store i8 %115, ptr %114, align 1
  br label %121

116:                                              ; preds = %105
  %117 = load ptr, ptr %6, align 8
  %118 = load ptr, ptr %7, align 8
  %119 = load ptr, ptr %9, align 8
  %120 = call i32 @ssl_connect_nonblocking(ptr noundef %117, ptr noundef %118, ptr noundef %119)
  store i32 %120, ptr %12, align 4
  br label %121

121:                                              ; preds = %116, %108
  %122 = load i32, ptr %12, align 4
  %123 = icmp ne i32 %122, 0
  br i1 %123, label %143, label %124

124:                                              ; preds = %121
  %125 = load ptr, ptr %9, align 8
  %126 = load i8, ptr %125, align 1
  %127 = trunc i8 %126 to i1
  br i1 %127, label %128, label %143

128:                                              ; preds = %124
  %129 = load ptr, ptr %6, align 8
  %130 = getelementptr inbounds %struct.Curl_cfilter, ptr %129, i32 0, i32 5
  %131 = load i8, ptr %130, align 4
  %132 = and i8 %131, -2
  %133 = or i8 %132, 1
  store i8 %133, ptr %130, align 4
  %134 = load ptr, ptr %10, align 8
  %135 = getelementptr inbounds %struct.ssl_connect_data, ptr %134, i32 0, i32 6
  %136 = call { i64, i32 } @Curl_now()
  %137 = getelementptr inbounds { i64, i32 }, ptr %13, i32 0, i32 0
  %138 = extractvalue { i64, i32 } %136, 0
  store i64 %138, ptr %137, align 8
  %139 = getelementptr inbounds { i64, i32 }, ptr %13, i32 0, i32 1
  %140 = extractvalue { i64, i32 } %136, 1
  store i32 %140, ptr %139, align 8
  call void @llvm.memcpy.p0.p0.i64(ptr align 8 %135, ptr align 8 %13, i64 16, i1 false)
  br label %141

141:                                              ; preds = %128
  br label %142

142:                                              ; preds = %141
  br label %143

143:                                              ; preds = %142, %124, %121
  br label %144

144:                                              ; preds = %143, %104, %95
  br label %145

145:                                              ; preds = %144
  %146 = load ptr, ptr %7, align 8
  %147 = icmp ne ptr %146, null
  br i1 %147, label %148, label %175

148:                                              ; preds = %145
  %149 = load ptr, ptr %7, align 8
  %150 = getelementptr inbounds %struct.Curl_easy, ptr %149, i32 0, i32 16
  %151 = getelementptr inbounds %struct.UserDefined, ptr %150, i32 0, i32 122
  %152 = load i64, ptr %151, align 2
  %153 = lshr i64 %152, 28
  %154 = and i64 %153, 1
  %155 = trunc i64 %154 to i32
  %156 = icmp ne i32 %155, 0
  br i1 %156, label %157, label %175

157:                                              ; preds = %148
  %158 = load ptr, ptr %6, align 8
  %159 = icmp ne ptr %158, null
  br i1 %159, label %160, label %175

160:                                              ; preds = %157
  %161 = load ptr, ptr %6, align 8
  %162 = getelementptr inbounds %struct.Curl_cfilter, ptr %161, i32 0, i32 0
  %163 = load ptr, ptr %162, align 8
  %164 = getelementptr inbounds %struct.Curl_cftype, ptr %163, i32 0, i32 2
  %165 = load i32, ptr %164, align 4
  %166 = icmp sge i32 %165, 1
  br i1 %166, label %167, label %175

167:                                              ; preds = %160
  %168 = load ptr, ptr %7, align 8
  %169 = load ptr, ptr %6, align 8
  %170 = load i32, ptr %12, align 4
  %171 = load ptr, ptr %9, align 8
  %172 = load i8, ptr %171, align 1
  %173 = trunc i8 %172 to i1
  %174 = zext i1 %173 to i32
  call void (ptr, ptr, ptr, ...) @Curl_trc_cf_infof(ptr noundef %168, ptr noundef %169, ptr noundef @.str.22, i32 noundef %170, i32 noundef %174)
  br label %175

175:                                              ; preds = %167, %160, %157, %148, %145
  br label %176

176:                                              ; preds = %175
  br label %177

177:                                              ; preds = %176
  %178 = load ptr, ptr %6, align 8
  %179 = getelementptr inbounds %struct.Curl_cfilter, ptr %178, i32 0, i32 2
  %180 = load ptr, ptr %179, align 8
  %181 = getelementptr inbounds %struct.ssl_connect_data, ptr %180, i32 0, i32 5
  call void @llvm.memcpy.p0.p0.i64(ptr align 8 %181, ptr align 8 %11, i64 8, i1 false)
  br label %182

182:                                              ; preds = %177
  %183 = load i32, ptr %12, align 4
  store i32 %183, ptr %5, align 4
  br label %184

184:                                              ; preds = %182, %24
  %185 = load i32, ptr %5, align 4
  ret i32 %185
}