; Function Attrs: nounwind uwtable
define internal i32 @ssl_cf_connect(ptr noundef %0, ptr noundef %1, i1 noundef zeroext %2, ptr noundef %3) #2 {
  %5 = getelementptr inbounds nuw i8, ptr %0, i64 16
  %6 = load ptr, ptr %5, align 8
  %7 = getelementptr inbounds nuw i8, ptr %0, i64 36
  %8 = load i8, ptr %7, align 4
  %9 = and i8 %8, 1
  %.not = icmp eq i8 %9, 0
  br i1 %.not, label %11, label %10

10:                                               ; preds = %4
  store i8 1, ptr %3, align 1
  br label %71

11:                                               ; preds = %4
  %12 = getelementptr inbounds nuw i8, ptr %6, i64 56
  %.sroa.09.0.copyload = load ptr, ptr %12, align 8
  store ptr %1, ptr %12, align 8
  %.not58 = icmp eq ptr %1, null
  br i1 %.not58, label %23, label %13

13:                                               ; preds = %11
  %14 = getelementptr inbounds nuw i8, ptr %1, i64 2642
  %15 = load i64, ptr %14, align 2
  %16 = and i64 %15, 268435456
  %.not62 = icmp eq i64 %16, 0
  br i1 %.not62, label %23, label %17

17:                                               ; preds = %13
  %18 = load ptr, ptr %0, align 8
  %19 = getelementptr inbounds nuw i8, ptr %18, i64 12
  %20 = load i32, ptr %19, align 4
  %21 = icmp sgt i32 %20, 0
  br i1 %21, label %22, label %23

22:                                               ; preds = %17
  tail call void (ptr, ptr, ptr, ...) @Curl_trc_cf_infof(ptr noundef nonnull %1, ptr noundef nonnull %0, ptr noundef nonnull @.str.21) #18
  br label %23

23:                                               ; preds = %11, %13, %17, %22
  %24 = getelementptr inbounds nuw i8, ptr %0, i64 8
  %25 = load ptr, ptr %24, align 8
  %26 = load ptr, ptr %25, align 8
  %27 = getelementptr inbounds nuw i8, ptr %26, i64 24
  %28 = load ptr, ptr %27, align 8
  %29 = tail call i32 %28(ptr noundef nonnull %25, ptr noundef %1, i1 noundef zeroext %2, ptr noundef %3) #18
  %.not59 = icmp eq i32 %29, 0
  br i1 %.not59, label %30, label %54

30:                                               ; preds = %23
  %31 = load i8, ptr %3, align 1
  %32 = trunc i8 %31 to i1
  br i1 %32, label %33, label %54

33:                                               ; preds = %30
  store i8 0, ptr %3, align 1
  %34 = getelementptr inbounds nuw i8, ptr %6, i64 8
  %35 = tail call i32 @Curl_ssl_peer_init(ptr noundef nonnull %34, ptr noundef nonnull %0)
  %.not60 = icmp eq i32 %35, 0
  br i1 %.not60, label %36, label %54

36:                                               ; preds = %33
  br i1 %2, label %37, label %41

37:                                               ; preds = %36
  %38 = tail call fastcc i32 @ssl_connect(ptr noundef nonnull %0, ptr noundef %1)
  %39 = icmp eq i32 %38, 0
  %40 = zext i1 %39 to i8
  store i8 %40, ptr %3, align 1
  br label %43

41:                                               ; preds = %36
  %42 = tail call fastcc i32 @ssl_connect_nonblocking(ptr noundef nonnull %0, ptr noundef %1, ptr noundef nonnull %3)
  br label %43

43:                                               ; preds = %41, %37
  %.050 = phi i32 [ %38, %37 ], [ %42, %41 ]
  %.not61 = icmp eq i32 %.050, 0
  br i1 %.not61, label %44, label %54

44:                                               ; preds = %43
  %45 = load i8, ptr %3, align 1
  %46 = trunc i8 %45 to i1
  br i1 %46, label %47, label %54

47:                                               ; preds = %44
  %48 = load i8, ptr %7, align 4
  %49 = or i8 %48, 1
  store i8 %49, ptr %7, align 4
  %50 = getelementptr inbounds nuw i8, ptr %6, i64 64
  %51 = tail call { i64, i32 } @Curl_now() #18
  %52 = extractvalue { i64, i32 } %51, 0
  %53 = extractvalue { i64, i32 } %51, 1
  store i64 %52, ptr %50, align 8
  %.sroa.2.0..sroa_idx = getelementptr inbounds nuw i8, ptr %6, i64 72
  store i32 %53, ptr %.sroa.2.0..sroa_idx, align 8
  br label %54

54:                                               ; preds = %30, %23, %33, %47, %44, %43
  %.1 = phi i32 [ %29, %23 ], [ %35, %33 ], [ %.050, %43 ], [ 0, %47 ], [ 0, %44 ], [ 0, %30 ]
  br i1 %.not58, label %68, label %55

55:                                               ; preds = %54
  %56 = getelementptr inbounds nuw i8, ptr %1, i64 2642
  %57 = load i64, ptr %56, align 2
  %58 = and i64 %57, 268435456
  %.not63 = icmp eq i64 %58, 0
  br i1 %.not63, label %68, label %59

59:                                               ; preds = %55
  %60 = load ptr, ptr %0, align 8
  %61 = getelementptr inbounds nuw i8, ptr %60, i64 12
  %62 = load i32, ptr %61, align 4
  %63 = icmp sgt i32 %62, 0
  br i1 %63, label %64, label %68

64:                                               ; preds = %59
  %65 = load i8, ptr %3, align 1
  %66 = and i8 %65, 1
  %67 = zext nneg i8 %66 to i32
  tail call void (ptr, ptr, ptr, ...) @Curl_trc_cf_infof(ptr noundef nonnull %1, ptr noundef nonnull %0, ptr noundef nonnull @.str.22, i32 noundef %.1, i32 noundef %67) #18
  br label %68

68:                                               ; preds = %64, %59, %55, %54
  %69 = load ptr, ptr %5, align 8
  %70 = getelementptr inbounds nuw i8, ptr %69, i64 56
  store ptr %.sroa.09.0.copyload, ptr %70, align 8
  br label %71

71:                                               ; preds = %68, %10
  %.0 = phi i32 [ 0, %10 ], [ %.1, %68 ]
  ret i32 %.0
}